; Function Attrs: mustprogress uwtable
define void @_ZN11StringTable20serializeStringTableEPN3gmx11ISerializerE(ptr noundef nonnull readonly align 8 captures(none) dereferenceable(24) %0, ptr noundef %1) local_unnamed_addr #0 align 2 {
  %3 = alloca i32, align 4
  %4 = load ptr, ptr %1, align 8, !tbaa !49
  %5 = getelementptr inbounds nuw i8, ptr %4, i64 16
  %6 = load ptr, ptr %5, align 8
  %7 = tail call noundef zeroext i1 %6(ptr noundef nonnull align 8 dereferenceable(8) %1)
  br i1 %7, label %8, label %9

8:                                                ; preds = %2
  tail call void @_ZN3gmx8internal13assertHandlerEPKcS2_S2_S2_i(ptr noundef nonnull @.str.7, ptr noundef nonnull @.str.8, ptr noundef nonnull @"__PRETTY_FUNCTION__._ZZN11StringTable20serializeStringTableEPN3gmx11ISerializerEENK3$_0clEv", ptr noundef nonnull @.str.1, i32 noundef 126) #29
  unreachable

9:                                                ; preds = %2
  call void @llvm.lifetime.start.p0(i64 4, ptr nonnull %3) #25
  %10 = getelementptr inbounds nuw i8, ptr %0, i64 8
  %11 = load ptr, ptr %10, align 8, !tbaa !81
  %12 = load ptr, ptr %0, align 8, !tbaa !76
  %13 = ptrtoint ptr %11 to i64
  %14 = ptrtoint ptr %12 to i64
  %15 = sub i64 %13, %14
  %16 = lshr exact i64 %15, 5
  %17 = trunc i64 %16 to i32
  store i32 %17, ptr %3, align 4, !tbaa !34
  %18 = load ptr, ptr %1, align 8, !tbaa !49
  %19 = getelementptr inbounds nuw i8, ptr %18, i64 56
  %20 = load ptr, ptr %19, align 8
  call void %20(ptr noundef nonnull align 8 dereferenceable(8) %1, ptr noundef nonnull %3)
  %21 = load ptr, ptr %0, align 8, !tbaa !85
  %22 = load ptr, ptr %10, align 8, !tbaa !85
  %.not11 = icmp eq ptr %21, %22
  br i1 %.not11, label %._crit_edge, label %.lr.ph

._crit_edge:                                      ; preds = %.lr.ph, %9
  call void @llvm.lifetime.end.p0(i64 4, ptr nonnull %3) #25
  ret void

.lr.ph:                                           ; preds = %9, %.lr.ph
  %.sroa.07.012 = phi ptr [ %26, %.lr.ph ], [ %21, %9 ]
  %23 = load ptr, ptr %1, align 8, !tbaa !49
  %24 = getelementptr inbounds nuw i8, ptr %23, i64 120
  %25 = load ptr, ptr %24, align 8
  call void %25(ptr noundef nonnull align 8 dereferenceable(8) %1, ptr noundef nonnull %.sroa.07.012)
  %26 = getelementptr inbounds nuw i8, ptr %.sroa.07.012, i64 32
  %.not = icmp eq ptr %26, %22
  br i1 %.not, label %._crit_edge, label %.lr.ph
}